; Function Attrs: mustprogress uwtable
define void @cvSetWindowProperty(ptr noundef %0, i32 noundef %1, double noundef %2) local_unnamed_addr #3 personality ptr @__gxx_personality_v0 {
  %4 = alloca %"class.cv::utils::trace::details::Region", align 8
  %5 = alloca %"class.std::__cxx11::basic_string", align 8
  %6 = alloca %"class.std::allocator", align 1
  %7 = alloca %"class.std::shared_ptr", align 8
  %8 = alloca %"class.std::__cxx11::basic_string", align 8
  %9 = alloca %"class.std::allocator", align 1
  call void @_ZN2cv5utils5trace7details6RegionC1ERKNS3_21LocationStaticStorageE(ptr noundef nonnull align 8 dereferenceable(12) %4, ptr noundef nonnull align 8 dereferenceable(32) @_ZZ19cvSetWindowPropertyE25__cv_trace_location_fn192)
  %.not = icmp eq ptr %0, null
  br i1 %.not, label %10, label %18

10:                                               ; preds = %3
  call void @_ZNSaIcEC1Ev(ptr noundef nonnull align 1 dereferenceable(1) %6) #20
  invoke void @_ZNSt7__cxx1112basic_stringIcSt11char_traitsIcESaIcEEC1EPKcRKS3_(ptr noundef nonnull align 8 dereferenceable(32) %5, ptr noundef nonnull @.str.2, ptr noundef nonnull align 1 dereferenceable(1) %6)
          to label %11 unwind label %13

11:                                               ; preds = %10
  invoke void @_ZN2cv5errorEiRKNSt7__cxx1112basic_stringIcSt11char_traitsIcESaIcEEEPKcS9_i(i32 noundef -215, ptr noundef nonnull align 8 dereferenceable(32) %5, ptr noundef nonnull @__func__.cvSetWindowProperty, ptr noundef nonnull @.str.1, i32 noundef 193) #22
          to label %12 unwind label %15

12:                                               ; preds = %11
  unreachable

13:                                               ; preds = %10
  %14 = landingpad { ptr, i32 }
          cleanup
  br label %17

15:                                               ; preds = %11
  %16 = landingpad { ptr, i32 }
          cleanup
  call void @_ZNSt7__cxx1112basic_stringIcSt11char_traitsIcESaIcEED1Ev(ptr noundef nonnull align 8 dereferenceable(32) %5) #20
  br label %17

17:                                               ; preds = %15, %13
  %.pn = phi { ptr, i32 } [ %16, %15 ], [ %14, %13 ]
  call void @_ZNSaIcED1Ev(ptr noundef nonnull align 1 dereferenceable(1) %6) #20
  br label %119

18:                                               ; preds = %3
  call void @_ZNSaIcEC1Ev(ptr noundef nonnull align 1 dereferenceable(1) %9) #20
  invoke void @_ZNSt7__cxx1112basic_stringIcSt11char_traitsIcESaIcEEC1EPKcRKS3_(ptr noundef nonnull align 8 dereferenceable(32) %8, ptr noundef nonnull %0, ptr noundef nonnull align 1 dereferenceable(1) %9)
          to label %19 unwind label %27

19:                                               ; preds = %18
  invoke fastcc void @_ZN2cv4implL11findWindow_ERKNSt7__cxx1112basic_stringIcSt11char_traitsIcESaIcEEE(ptr dead_on_unwind noalias nonnull writable align 8 %7, ptr noundef nonnull align 8 dereferenceable(32) %8)
          to label %20 unwind label %29

20:                                               ; preds = %19
  call void @_ZNSt7__cxx1112basic_stringIcSt11char_traitsIcESaIcEED1Ev(ptr noundef nonnull align 8 dereferenceable(32) %8) #20
  call void @_ZNSaIcED1Ev(ptr noundef nonnull align 1 dereferenceable(1) %9) #20
  %21 = load ptr, ptr %7, align 8
  %.not32 = icmp eq ptr %21, null
  br i1 %.not32, label %.critedge, label %22

22:                                               ; preds = %20
  %23 = load ptr, ptr %21, align 8
  %24 = getelementptr inbounds i8, ptr %23, i64 56
  %25 = load ptr, ptr %24, align 8
  %26 = invoke noundef zeroext i1 %25(ptr noundef nonnull align 8 dereferenceable(8) %21, i32 noundef %1, double noundef %2)
          to label %34 unwind label %32

27:                                               ; preds = %18
  %28 = landingpad { ptr, i32 }
          cleanup
  br label %31

29:                                               ; preds = %19
  %30 = landingpad { ptr, i32 }
          cleanup
  call void @_ZNSt7__cxx1112basic_stringIcSt11char_traitsIcESaIcEED1Ev(ptr noundef nonnull align 8 dereferenceable(32) %8) #20
  br label %31

31:                                               ; preds = %29, %27
  %.pn19 = phi { ptr, i32 } [ %30, %29 ], [ %28, %27 ]
  call void @_ZNSaIcED1Ev(ptr noundef nonnull align 1 dereferenceable(1) %9) #20
  br label %119

32:                                               ; preds = %22
  %33 = landingpad { ptr, i32 }
          cleanup
  call void @_ZNSt10shared_ptrIN2cv15highgui_backend8UIWindowEED2Ev(ptr noundef nonnull align 8 dereferenceable(16) %7) #20
  br label %119

34:                                               ; preds = %22
  %35 = getelementptr inbounds i8, ptr %7, i64 8
  %36 = load ptr, ptr %35, align 8
  %.not.i.i.i = icmp eq ptr %36, null
  br i1 %.not.i.i.i, label %_ZNSt10shared_ptrIN2cv15highgui_backend8UIWindowEED2Ev.exit, label %37

37:                                               ; preds = %34
  %38 = getelementptr inbounds i8, ptr %36, i64 8
  %39 = load atomic i64, ptr %38 acquire, align 8
  %40 = icmp eq i64 %39, 4294967297
  %41 = trunc i64 %39 to i32
  br i1 %40, label %42, label %47

42:                                               ; preds = %37
  store i32 0, ptr %38, align 8
  %43 = getelementptr inbounds i8, ptr %36, i64 12
  store i32 0, ptr %43, align 4
  %44 = load ptr, ptr %36, align 8
  %45 = getelementptr inbounds i8, ptr %44, i64 16
  %46 = load ptr, ptr %45, align 8
  call void %46(ptr noundef nonnull align 8 dereferenceable(16) %36) #20
  br label %_ZNSt16_Sp_counted_baseILN9__gnu_cxx12_Lock_policyE2EE24_M_release_last_use_coldEv.exit.sink.split.i.i.i.i

47:                                               ; preds = %37
  %48 = load i8, ptr @__libc_single_threaded, align 1
  %.not.i.i.i.i = icmp eq i8 %48, 0
  br i1 %.not.i.i.i.i, label %51, label %49

49:                                               ; preds = %47
  %50 = add nsw i32 %41, -1
  store i32 %50, ptr %38, align 4
  br label %53

51:                                               ; preds = %47
  %52 = atomicrmw volatile add ptr %38, i32 -1 acq_rel, align 4
  br label %53

53:                                               ; preds = %51, %49
  %.0.i.i.i.i = phi i32 [ %41, %49 ], [ %52, %51 ]
  %54 = icmp eq i32 %.0.i.i.i.i, 1
  br i1 %54, label %55, label %_ZNSt10shared_ptrIN2cv15highgui_backend8UIWindowEED2Ev.exit

55:                                               ; preds = %53
  %56 = load ptr, ptr %36, align 8
  %57 = getelementptr inbounds i8, ptr %56, i64 16
  %58 = load ptr, ptr %57, align 8
  call void %58(ptr noundef nonnull align 8 dereferenceable(16) %36) #20
  %59 = getelementptr inbounds i8, ptr %36, i64 12
  %60 = load i8, ptr @__libc_single_threaded, align 1
  %.not.i.i.i.i.i.i = icmp eq i8 %60, 0
  br i1 %.not.i.i.i.i.i.i, label %64, label %61

61:                                               ; preds = %55
  %62 = load i32, ptr %59, align 4
  %63 = add nsw i32 %62, -1
  store i32 %63, ptr %59, align 4
  br label %66

64:                                               ; preds = %55
  %65 = atomicrmw volatile add ptr %59, i32 -1 acq_rel, align 4
  br label %66

66:                                               ; preds = %64, %61
  %.0.i.i.i.i.i.i = phi i32 [ %62, %61 ], [ %65, %64 ]
  %67 = icmp eq i32 %.0.i.i.i.i.i.i, 1
  br i1 %67, label %_ZNSt16_Sp_counted_baseILN9__gnu_cxx12_Lock_policyE2EE24_M_release_last_use_coldEv.exit.sink.split.i.i.i.i, label %_ZNSt10shared_ptrIN2cv15highgui_backend8UIWindowEED2Ev.exit

_ZNSt16_Sp_counted_baseILN9__gnu_cxx12_Lock_policyE2EE24_M_release_last_use_coldEv.exit.sink.split.i.i.i.i: ; preds = %66, %42
  %68 = load ptr, ptr %36, align 8
  %69 = getelementptr inbounds i8, ptr %68, i64 24
  %70 = load ptr, ptr %69, align 8
  call void %70(ptr noundef nonnull align 8 dereferenceable(16) %36) #20
  br label %_ZNSt10shared_ptrIN2cv15highgui_backend8UIWindowEED2Ev.exit

.critedge:                                        ; preds = %20
  %71 = getelementptr inbounds i8, ptr %7, i64 8
  %72 = load ptr, ptr %71, align 8
  %.not.i.i.i25 = icmp eq ptr %72, null
  br i1 %.not.i.i.i25, label %_ZNSt10shared_ptrIN2cv15highgui_backend8UIWindowEED2Ev.exit31, label %73

73:                                               ; preds = %.critedge
  %74 = getelementptr inbounds i8, ptr %72, i64 8
  %75 = load atomic i64, ptr %74 acquire, align 8
  %76 = icmp eq i64 %75, 4294967297
  %77 = trunc i64 %75 to i32
  br i1 %76, label %78, label %83

78:                                               ; preds = %73
  store i32 0, ptr %74, align 8
  %79 = getelementptr inbounds i8, ptr %72, i64 12
  store i32 0, ptr %79, align 4
  %80 = load ptr, ptr %72, align 8
  %81 = getelementptr inbounds i8, ptr %80, i64 16
  %82 = load ptr, ptr %81, align 8
  call void %82(ptr noundef nonnull align 8 dereferenceable(16) %72) #20
  br label %_ZNSt16_Sp_counted_baseILN9__gnu_cxx12_Lock_policyE2EE24_M_release_last_use_coldEv.exit.sink.split.i.i.i.i30

83:                                               ; preds = %73
  %84 = load i8, ptr @__libc_single_threaded, align 1
  %.not.i.i.i.i26 = icmp eq i8 %84, 0
  br i1 %.not.i.i.i.i26, label %87, label %85

85:                                               ; preds = %83
  %86 = add nsw i32 %77, -1
  store i32 %86, ptr %74, align 4
  br label %89

87:                                               ; preds = %83
  %88 = atomicrmw volatile add ptr %74, i32 -1 acq_rel, align 4
  br label %89

89:                                               ; preds = %87, %85
  %.0.i.i.i.i27 = phi i32 [ %77, %85 ], [ %88, %87 ]
  %90 = icmp eq i32 %.0.i.i.i.i27, 1
  br i1 %90, label %91, label %_ZNSt10shared_ptrIN2cv15highgui_backend8UIWindowEED2Ev.exit31

91:                                               ; preds = %89
  %92 = load ptr, ptr %72, align 8
  %93 = getelementptr inbounds i8, ptr %92, i64 16
  %94 = load ptr, ptr %93, align 8
  call void %94(ptr noundef nonnull align 8 dereferenceable(16) %72) #20
  %95 = getelementptr inbounds i8, ptr %72, i64 12
  %96 = load i8, ptr @__libc_single_threaded, align 1
  %.not.i.i.i.i.i.i28 = icmp eq i8 %96, 0
  br i1 %.not.i.i.i.i.i.i28, label %100, label %97

97:                                               ; preds = %91
  %98 = load i32, ptr %95, align 4
  %99 = add nsw i32 %98, -1
  store i32 %99, ptr %95, align 4
  br label %102

100:                                              ; preds = %91
  %101 = atomicrmw volatile add ptr %95, i32 -1 acq_rel, align 4
  br label %102

102:                                              ; preds = %100, %97
  %.0.i.i.i.i.i.i29 = phi i32 [ %98, %97 ], [ %101, %100 ]
  %103 = icmp eq i32 %.0.i.i.i.i.i.i29, 1
  br i1 %103, label %_ZNSt16_Sp_counted_baseILN9__gnu_cxx12_Lock_policyE2EE24_M_release_last_use_coldEv.exit.sink.split.i.i.i.i30, label %_ZNSt10shared_ptrIN2cv15highgui_backend8UIWindowEED2Ev.exit31

_ZNSt16_Sp_counted_baseILN9__gnu_cxx12_Lock_policyE2EE24_M_release_last_use_coldEv.exit.sink.split.i.i.i.i30: ; preds = %102, %78
  %104 = load ptr, ptr %72, align 8
  %105 = getelementptr inbounds i8, ptr %104, i64 24
  %106 = load ptr, ptr %105, align 8
  call void %106(ptr noundef nonnull align 8 dereferenceable(16) %72) #20
  br label %_ZNSt10shared_ptrIN2cv15highgui_backend8UIWindowEED2Ev.exit31

_ZNSt10shared_ptrIN2cv15highgui_backend8UIWindowEED2Ev.exit31: ; preds = %.critedge, %89, %102, %_ZNSt16_Sp_counted_baseILN9__gnu_cxx12_Lock_policyE2EE24_M_release_last_use_coldEv.exit.sink.split.i.i.i.i30
  %cond2.old = icmp eq i32 %1, 0
  br i1 %cond2.old, label %107, label %_ZNSt10shared_ptrIN2cv15highgui_backend8UIWindowEED2Ev.exit

107:                                              ; preds = %_ZNSt10shared_ptrIN2cv15highgui_backend8UIWindowEED2Ev.exit31
  %108 = fcmp une double %2, 0.000000e+00
  %109 = fcmp une double %2, 1.000000e+00
  %or.cond = and i1 %108, %109
  br i1 %or.cond, label %_ZNSt10shared_ptrIN2cv15highgui_backend8UIWindowEED2Ev.exit, label %110

110:                                              ; preds = %107
  invoke void @_Z19cvSetModeWindow_GTKPKcd(ptr noundef nonnull %0, double noundef %2)
          to label %_ZNSt10shared_ptrIN2cv15highgui_backend8UIWindowEED2Ev.exit unwind label %111

111:                                              ; preds = %110
  %112 = landingpad { ptr, i32 }
          cleanup
  br label %119

_ZNSt10shared_ptrIN2cv15highgui_backend8UIWindowEED2Ev.exit: ; preds = %_ZNSt16_Sp_counted_baseILN9__gnu_cxx12_Lock_policyE2EE24_M_release_last_use_coldEv.exit.sink.split.i.i.i.i, %66, %53, %34, %107, %110, %_ZNSt10shared_ptrIN2cv15highgui_backend8UIWindowEED2Ev.exit31
  %113 = getelementptr inbounds i8, ptr %4, i64 8
  %114 = load i32, ptr %113, align 8
  %.not.i = icmp eq i32 %114, 0
  br i1 %.not.i, label %_ZN2cv5utils5trace7details6RegionD2Ev.exit, label %115

115:                                              ; preds = %_ZNSt10shared_ptrIN2cv15highgui_backend8UIWindowEED2Ev.exit
  invoke void @_ZN2cv5utils5trace7details6Region7destroyEv(ptr noundef nonnull align 8 dereferenceable(12) %4)
          to label %_ZN2cv5utils5trace7details6RegionD2Ev.exit unwind label %116

116:                                              ; preds = %115
  %117 = landingpad { ptr, i32 }
          catch ptr null
  %118 = extractvalue { ptr, i32 } %117, 0
  call void @__clang_call_terminate(ptr %118) #23
  unreachable

_ZN2cv5utils5trace7details6RegionD2Ev.exit:       ; preds = %_ZNSt10shared_ptrIN2cv15highgui_backend8UIWindowEED2Ev.exit, %115
  ret void

119:                                              ; preds = %111, %32, %31, %17
  %.pn21 = phi { ptr, i32 } [ %112, %111 ], [ %33, %32 ], [ %.pn19, %31 ], [ %.pn, %17 ]
  call void @_ZN2cv5utils5trace7details6RegionD2Ev(ptr noundef nonnull align 8 dereferenceable(12) %4) #20
  resume { ptr, i32 } %.pn21
}